; Function Attrs: nounwind uwtable
define internal void @kdf_scrypt_reset(ptr noundef captures(none) initializes((48, 80)) %0) #0 {
  %2 = getelementptr inbounds nuw i8, ptr %0, i64 32
  %3 = load ptr, ptr %2, align 8, !tbaa !18
  tail call void @CRYPTO_free(ptr noundef %3, ptr noundef nonnull @.str, i32 noundef 94) #7
  store ptr null, ptr %2, align 8, !tbaa !18
  %4 = getelementptr inbounds nuw i8, ptr %0, i64 16
  %5 = load ptr, ptr %4, align 8, !tbaa !20
  %6 = getelementptr inbounds nuw i8, ptr %0, i64 24
  %7 = load i64, ptr %6, align 8, !tbaa !21
  tail call void @CRYPTO_clear_free(ptr noundef %5, i64 noundef %7, ptr noundef nonnull @.str, i32 noundef 96) #7
  store ptr null, ptr %4, align 8, !tbaa !20
  %8 = getelementptr inbounds nuw i8, ptr %0, i64 48
  store i64 1048576, ptr %8, align 8, !tbaa !12
  %9 = getelementptr inbounds nuw i8, ptr %0, i64 56
  store i64 8, ptr %9, align 8, !tbaa !13
  %10 = getelementptr inbounds nuw i8, ptr %0, i64 64
  store i64 1, ptr %10, align 8, !tbaa !14
  %11 = getelementptr inbounds nuw i8, ptr %0, i64 72
  store i64 1074790400, ptr %11, align 8, !tbaa !15
  ret void
}